target datalayout = "e-m:e-p270:32:32-p271:32:32-p272:64:64-i64:64-i128:128-f80:128-n8:16:32:64-S128"
target triple = "x86_64-pc-linux-gnu"

%"class.std::map" = type { %"class.std::_Rb_tree" }
%"class.std::_Rb_tree" = type { %"struct.std::_Rb_tree<unsigned int, std::pair<const unsigned int, cv::obsensor::FrameFormat>, std::_Select1st<std::pair<const unsigned int, cv::obsensor::FrameFormat>>, std::less<unsigned int>>::_Rb_tree_impl" }
%"struct.std::_Rb_tree<unsigned int, std::pair<const unsigned int, cv::obsensor::FrameFormat>, std::_Select1st<std::pair<const unsigned int, cv::obsensor::FrameFormat>>, std::less<unsigned int>>::_Rb_tree_impl" = type { [8 x i8], %"struct.std::_Rb_tree_header" }
%"struct.std::_Rb_tree_header" = type { %"struct.std::_Rb_tree_node_base", i64 }
%"struct.std::_Rb_tree_node_base" = type { i32, ptr, ptr, ptr }
%"struct.std::pair" = type { i32, i32 }
%"struct.std::_Rb_tree_const_iterator" = type { ptr }
%"struct.std::_Rb_tree_node" = type { %"struct.std::_Rb_tree_node_base", %"struct.__gnu_cxx::__aligned_membuf" }
%"struct.__gnu_cxx::__aligned_membuf" = type { [8 x i8] }

@_ZN2cv8obsensorL16fourccToOBFormatE = internal global %"class.std::map" zeroinitializer, align 8

; Function Attrs: mustprogress nounwind uwtable
define linkonce_odr hidden noundef ptr @_ZNK9__gnu_cxx16__aligned_membufISt4pairIKjN2cv8obsensor11FrameFormatEEE7_M_addrEv(ptr noundef nonnull align 4 dereferenceable(8) %0) #6 comdat align 2 {
  %2 = alloca ptr, align 8
  store ptr %0, ptr %2, align 8, !tbaa !176
  %3 = load ptr, ptr %2, align 8
  %4 = getelementptr inbounds nuw %"struct.__gnu_cxx::__aligned_membuf", ptr %3, i32 0, i32 0
  ret ptr %4
}

; Function Attrs: mustprogress nounwind uwtable
define linkonce_odr hidden noundef ptr @_ZNK9__gnu_cxx16__aligned_membufISt4pairIKjN2cv8obsensor11FrameFormatEEE6_M_ptrEv(ptr noundef nonnull align 4 dereferenceable(8) %0) #6 comdat align 2 {
  %2 = alloca ptr, align 8
  store ptr %0, ptr %2, align 8, !tbaa !176
  %3 = load ptr, ptr %2, align 8
  %4 = call noundef ptr @_ZNK9__gnu_cxx16__aligned_membufISt4pairIKjN2cv8obsensor11FrameFormatEEE7_M_addrEv(ptr noundef nonnull align 4 dereferenceable(8) %3) #3
  ret ptr %4
}

; Function Attrs: mustprogress nounwind uwtable
define linkonce_odr hidden void @_ZNSt23_Rb_tree_const_iteratorISt4pairIKjN2cv8obsensor11FrameFormatEEEC2EPKSt18_Rb_tree_node_base(ptr noundef nonnull align 8 dereferenceable(8) %0, ptr noundef %1) unnamed_addr #6 comdat align 2 {
  %3 = alloca ptr, align 8
  %4 = alloca ptr, align 8
  store ptr %0, ptr %3, align 8, !tbaa !38
  store ptr %1, ptr %4, align 8, !tbaa !80
  %5 = load ptr, ptr %3, align 8
  %6 = getelementptr inbounds nuw %"struct.std::_Rb_tree_const_iterator", ptr %5, i32 0, i32 0
  %7 = load ptr, ptr %4, align 8, !tbaa !80
  store ptr %7, ptr %6, align 8, !tbaa !40
  ret void
}

; Function Attrs: mustprogress nounwind uwtable
define linkonce_odr hidden noundef ptr @_ZNKSt13_Rb_tree_nodeISt4pairIKjN2cv8obsensor11FrameFormatEEE9_M_valptrEv(ptr noundef nonnull align 8 dereferenceable(40) %0) #6 comdat align 2 {
  %2 = alloca ptr, align 8
  store ptr %0, ptr %2, align 8, !tbaa !165
  %3 = load ptr, ptr %2, align 8
  %4 = getelementptr inbounds nuw %"struct.std::_Rb_tree_node", ptr %3, i32 0, i32 1
  %5 = call noundef ptr @_ZNK9__gnu_cxx16__aligned_membufISt4pairIKjN2cv8obsensor11FrameFormatEEE6_M_ptrEv(ptr noundef nonnull align 4 dereferenceable(8) %4) #3
  ret ptr %5
}

; Function Attrs: mustprogress nounwind uwtable
define linkonce_odr hidden ptr @_ZNKSt8_Rb_treeIjSt4pairIKjN2cv8obsensor11FrameFormatEESt10_Select1stIS5_ESt4lessIjESaIS5_EE3endEv(ptr noundef nonnull align 8 dereferenceable(48) %0) #6 comdat align 2 {
  %2 = alloca %"struct.std::_Rb_tree_const_iterator", align 8
  %3 = alloca ptr, align 8
  store ptr %0, ptr %3, align 8, !tbaa !163
  %4 = load ptr, ptr %3, align 8
  %5 = getelementptr inbounds nuw %"class.std::_Rb_tree", ptr %4, i32 0, i32 0
  %6 = getelementptr inbounds i8, ptr %5, i64 8
  %7 = getelementptr inbounds nuw %"struct.std::_Rb_tree_header", ptr %6, i32 0, i32 0
  call void @_ZNSt23_Rb_tree_const_iteratorISt4pairIKjN2cv8obsensor11FrameFormatEEEC2EPKSt18_Rb_tree_node_base(ptr noundef nonnull align 8 dereferenceable(8) %2, ptr noundef %7) #3
  %8 = getelementptr inbounds nuw %"struct.std::_Rb_tree_const_iterator", ptr %2, i32 0, i32 0
  %9 = load ptr, ptr %8, align 8
  ret ptr %9
}

; Function Attrs: mustprogress nounwind uwtable
define linkonce_odr hidden ptr @_ZNKSt8_Rb_treeIjSt4pairIKjN2cv8obsensor11FrameFormatEESt10_Select1stIS5_ESt4lessIjESaIS5_EE5beginEv(ptr noundef nonnull align 8 dereferenceable(48) %0) #6 comdat align 2 {
  %2 = alloca %"struct.std::_Rb_tree_const_iterator", align 8
  %3 = alloca ptr, align 8
  store ptr %0, ptr %3, align 8, !tbaa !163
  %4 = load ptr, ptr %3, align 8
  %5 = getelementptr inbounds nuw %"class.std::_Rb_tree", ptr %4, i32 0, i32 0
  %6 = getelementptr inbounds i8, ptr %5, i64 8
  %7 = getelementptr inbounds nuw %"struct.std::_Rb_tree_header", ptr %6, i32 0, i32 0
  %8 = getelementptr inbounds nuw %"struct.std::_Rb_tree_node_base", ptr %7, i32 0, i32 2
  %9 = load ptr, ptr %8, align 8, !tbaa !203
  call void @_ZNSt23_Rb_tree_const_iteratorISt4pairIKjN2cv8obsensor11FrameFormatEEEC2EPKSt18_Rb_tree_node_base(ptr noundef nonnull align 8 dereferenceable(8) %2, ptr noundef %9) #3
  %10 = getelementptr inbounds nuw %"struct.std::_Rb_tree_const_iterator", ptr %2, i32 0, i32 0
  %11 = load ptr, ptr %10, align 8
  ret ptr %11
}

; Function Attrs: mustprogress nounwind uwtable
define linkonce_odr hidden noundef nonnull align 8 dereferenceable(8) ptr @_ZNSt23_Rb_tree_const_iteratorISt4pairIKjN2cv8obsensor11FrameFormatEEEppEv(ptr noundef nonnull align 8 dereferenceable(8) %0) #6 comdat align 2 {
  %2 = alloca ptr, align 8
  store ptr %0, ptr %2, align 8, !tbaa !38
  %3 = load ptr, ptr %2, align 8
  %4 = getelementptr inbounds nuw %"struct.std::_Rb_tree_const_iterator", ptr %3, i32 0, i32 0
  %5 = load ptr, ptr %4, align 8, !tbaa !40
  %6 = call noundef ptr @_ZSt18_Rb_tree_incrementPKSt18_Rb_tree_node_base(ptr noundef %5) #21
  %7 = getelementptr inbounds nuw %"struct.std::_Rb_tree_const_iterator", ptr %3, i32 0, i32 0
  store ptr %6, ptr %7, align 8, !tbaa !40
  ret ptr %3
}

; Function Attrs: mustprogress nounwind uwtable
define linkonce_odr hidden noundef nonnull align 4 dereferenceable(8) ptr @_ZNKSt23_Rb_tree_const_iteratorISt4pairIKjN2cv8obsensor11FrameFormatEEEdeEv(ptr noundef nonnull align 8 dereferenceable(8) %0) #6 comdat align 2 {
  %2 = alloca ptr, align 8
  store ptr %0, ptr %2, align 8, !tbaa !38
  %3 = load ptr, ptr %2, align 8
  %4 = getelementptr inbounds nuw %"struct.std::_Rb_tree_const_iterator", ptr %3, i32 0, i32 0
  %5 = load ptr, ptr %4, align 8, !tbaa !40
  %6 = call noundef ptr @_ZNKSt13_Rb_tree_nodeISt4pairIKjN2cv8obsensor11FrameFormatEEE9_M_valptrEv(ptr noundef nonnull align 8 dereferenceable(40) %5)
  ret ptr %6
}

; Function Attrs: mustprogress nounwind uwtable
define linkonce_odr noundef zeroext i1 @_ZStneRKSt23_Rb_tree_const_iteratorISt4pairIKjN2cv8obsensor11FrameFormatEEES8_(ptr noundef nonnull align 8 dereferenceable(8) %0, ptr noundef nonnull align 8 dereferenceable(8) %1) #6 comdat {
  %3 = alloca ptr, align 8
  %4 = alloca ptr, align 8
  store ptr %0, ptr %3, align 8, !tbaa !38
  store ptr %1, ptr %4, align 8, !tbaa !38
  %5 = load ptr, ptr %3, align 8, !tbaa !38
  %6 = getelementptr inbounds nuw %"struct.std::_Rb_tree_const_iterator", ptr %5, i32 0, i32 0
  %7 = load ptr, ptr %6, align 8, !tbaa !40
  %8 = load ptr, ptr %4, align 8, !tbaa !38
  %9 = getelementptr inbounds nuw %"struct.std::_Rb_tree_const_iterator", ptr %8, i32 0, i32 0
  %10 = load ptr, ptr %9, align 8, !tbaa !40
  %11 = icmp ne ptr %7, %10
  ret i1 %11
}

; Function Attrs: mustprogress nounwind uwtable
define linkonce_odr hidden ptr @_ZNKSt3mapIjN2cv8obsensor11FrameFormatESt4lessIjESaISt4pairIKjS2_EEE3endEv(ptr noundef nonnull align 8 dereferenceable(48) %0) #6 comdat align 2 {
  %2 = alloca %"struct.std::_Rb_tree_const_iterator", align 8
  %3 = alloca ptr, align 8
  store ptr %0, ptr %3, align 8, !tbaa !15
  %4 = load ptr, ptr %3, align 8
  %5 = getelementptr inbounds nuw %"class.std::map", ptr %4, i32 0, i32 0
  %6 = call ptr @_ZNKSt8_Rb_treeIjSt4pairIKjN2cv8obsensor11FrameFormatEESt10_Select1stIS5_ESt4lessIjESaIS5_EE3endEv(ptr noundef nonnull align 8 dereferenceable(48) %5) #3
  %7 = getelementptr inbounds nuw %"struct.std::_Rb_tree_const_iterator", ptr %2, i32 0, i32 0
  store ptr %6, ptr %7, align 8
  %8 = getelementptr inbounds nuw %"struct.std::_Rb_tree_const_iterator", ptr %2, i32 0, i32 0
  %9 = load ptr, ptr %8, align 8
  ret ptr %9
}

; Function Attrs: mustprogress nounwind uwtable
define linkonce_odr hidden ptr @_ZNKSt3mapIjN2cv8obsensor11FrameFormatESt4lessIjESaISt4pairIKjS2_EEE5beginEv(ptr noundef nonnull align 8 dereferenceable(48) %0) #6 comdat align 2 {
  %2 = alloca %"struct.std::_Rb_tree_const_iterator", align 8
  %3 = alloca ptr, align 8
  store ptr %0, ptr %3, align 8, !tbaa !15
  %4 = load ptr, ptr %3, align 8
  %5 = getelementptr inbounds nuw %"class.std::map", ptr %4, i32 0, i32 0
  %6 = call ptr @_ZNKSt8_Rb_treeIjSt4pairIKjN2cv8obsensor11FrameFormatEESt10_Select1stIS5_ESt4lessIjESaIS5_EE5beginEv(ptr noundef nonnull align 8 dereferenceable(48) %5) #3
  %7 = getelementptr inbounds nuw %"struct.std::_Rb_tree_const_iterator", ptr %2, i32 0, i32 0
  store ptr %6, ptr %7, align 8
  %8 = getelementptr inbounds nuw %"struct.std::_Rb_tree_const_iterator", ptr %2, i32 0, i32 0
  %9 = load ptr, ptr %8, align 8
  ret ptr %9
}

; Function Attrs: mustprogress nounwind uwtable
define hidden noundef i32 @_ZN2cv8obsensor19frameFourccToFormatEj(i32 noundef %0) #6 {
  %2 = alloca i32, align 4
  %3 = alloca i32, align 4
  %4 = alloca ptr, align 8
  %5 = alloca %"struct.std::_Rb_tree_const_iterator", align 8
  %6 = alloca %"struct.std::_Rb_tree_const_iterator", align 8
  %7 = alloca i32, align 4
  %8 = alloca ptr, align 8
  store i32 %0, ptr %3, align 4, !tbaa !31
  call void @llvm.lifetime.start.p0(i64 8, ptr %4) #3
  store ptr @_ZN2cv8obsensorL16fourccToOBFormatE, ptr %4, align 8, !tbaa !15
  call void @llvm.lifetime.start.p0(i64 8, ptr %5) #3
  %9 = call ptr @_ZNKSt3mapIjN2cv8obsensor11FrameFormatESt4lessIjESaISt4pairIKjS2_EEE5beginEv(ptr noundef nonnull align 8 dereferenceable(48) @_ZN2cv8obsensorL16fourccToOBFormatE) #3
  %10 = getelementptr inbounds nuw %"struct.std::_Rb_tree_const_iterator", ptr %5, i32 0, i32 0
  store ptr %9, ptr %10, align 8
  call void @llvm.lifetime.start.p0(i64 8, ptr %6) #3
  %11 = call ptr @_ZNKSt3mapIjN2cv8obsensor11FrameFormatESt4lessIjESaISt4pairIKjS2_EEE3endEv(ptr noundef nonnull align 8 dereferenceable(48) @_ZN2cv8obsensorL16fourccToOBFormatE) #3
  %12 = getelementptr inbounds nuw %"struct.std::_Rb_tree_const_iterator", ptr %6, i32 0, i32 0
  store ptr %11, ptr %12, align 8
  br label %13

13:                                               ; preds = %31, %1
  %14 = call noundef zeroext i1 @_ZStneRKSt23_Rb_tree_const_iteratorISt4pairIKjN2cv8obsensor11FrameFormatEEES8_(ptr noundef nonnull align 8 dereferenceable(8) %5, ptr noundef nonnull align 8 dereferenceable(8) %6) #3
  br i1 %14, label %16, label %15

15:                                               ; preds = %13
  store i32 2, ptr %7, align 4
  br label %33

16:                                               ; preds = %13
  call void @llvm.lifetime.start.p0(i64 8, ptr %8) #3
  %17 = call noundef nonnull align 4 dereferenceable(8) ptr @_ZNKSt23_Rb_tree_const_iteratorISt4pairIKjN2cv8obsensor11FrameFormatEEEdeEv(ptr noundef nonnull align 8 dereferenceable(8) %5) #3
  store ptr %17, ptr %8, align 8, !tbaa !33
  %18 = load ptr, ptr %8, align 8, !tbaa !33
  %19 = getelementptr inbounds nuw %"struct.std::pair", ptr %18, i32 0, i32 0
  %20 = load i32, ptr %19, align 4, !tbaa !34
  %21 = load i32, ptr %3, align 4, !tbaa !31
  %22 = icmp eq i32 %20, %21
  br i1 %22, label %23, label %27

23:                                               ; preds = %16
  %24 = load ptr, ptr %8, align 8, !tbaa !33
  %25 = getelementptr inbounds nuw %"struct.std::pair", ptr %24, i32 0, i32 1
  %26 = load i32, ptr %25, align 4, !tbaa !37
  store i32 %26, ptr %2, align 4
  store i32 1, ptr %7, align 4
  br label %28

27:                                               ; preds = %16
  store i32 0, ptr %7, align 4
  br label %28

28:                                               ; preds = %27, %23
  call void @llvm.lifetime.end.p0(i64 8, ptr %8) #3
  %29 = load i32, ptr %7, align 4
  switch i32 %29, label %33 [
    i32 0, label %30
  ]

30:                                               ; preds = %28
  br label %31

31:                                               ; preds = %30
  %32 = call noundef nonnull align 8 dereferenceable(8) ptr @_ZNSt23_Rb_tree_const_iteratorISt4pairIKjN2cv8obsensor11FrameFormatEEEppEv(ptr noundef nonnull align 8 dereferenceable(8) %5) #3
  br label %13

33:                                               ; preds = %28, %15
  call void @llvm.lifetime.end.p0(i64 8, ptr %6) #3
  call void @llvm.lifetime.end.p0(i64 8, ptr %5) #3
  call void @llvm.lifetime.end.p0(i64 8, ptr %4) #3
  %34 = load i32, ptr %7, align 4
  switch i32 %34, label %38 [
    i32 2, label %35
    i32 1, label %36
  ]

35:                                               ; preds = %33
  store i32 -1, ptr %2, align 4
  br label %36

36:                                               ; preds = %35, %33
  %37 = load i32, ptr %2, align 4
  ret i32 %37

38:                                               ; preds = %33
  unreachable
}